Certificate Request:
    Data:
        Version: 0 (0x0)
        Subject: CN=camunda-postgres
        Subject Public Key Info:
            Public Key Algorithm: rsaEncryption
                Public-Key: (2048 bit)
                Modulus:
                    00:d2:69:1e:da:61:86:dd:98:75:55:13:4c:cf:93:
                    80:e4:f1:86:b5:ab:bd:4d:98:fa:f7:c9:ec:3e:f3:
                    91:9c:ab:fd:bd:f7:5d:0d:e6:e8:97:27:e7:a9:2b:
                    05:18:03:44:3c:66:2f:6c:21:f8:a5:7f:64:70:80:
                    df:8c:12:ec:2d:3a:d1:ad:d3:5b:4c:c3:30:af:05:
                    e4:b1:27:3e:96:7e:9e:ee:ea:90:d1:c2:8b:18:16:
                    e6:a1:a8:45:1a:54:78:bf:df:2e:63:f6:34:0e:eb:
                    bb:66:88:08:f0:b3:82:c7:04:45:4e:a3:f2:e9:6b:
                    c1:08:53:cf:20:96:2d:c6:48:4e:20:89:6a:80:1c:
                    23:ec:c3:f1:67:96:39:1d:27:f9:3f:4c:0a:04:d3:
                    ee:ba:e5:d0:51:df:ea:e1:48:6f:ba:48:ac:d5:f4:
                    8a:c4:11:89:e1:70:33:c6:0b:f3:4e:66:ba:d9:98:
                    fc:d1:7c:f6:e3:15:4c:e3:00:e3:ca:9d:48:96:b4:
                    9a:ba:35:49:07:96:6b:8e:43:31:e0:2c:35:64:bf:
                    87:3b:16:49:74:41:56:42:ff:96:3f:d9:ce:4a:71:
                    12:ca:fd:98:ec:03:a3:ae:1b:0f:4d:91:29:7d:f3:
                    de:08:46:de:e9:21:ca:ff:8e:f3:50:0e:9c:86:54:
                    52:55
                Exponent: 65537 (0x10001)
        Attributes:
            a0:00
    Signature Algorithm: sha256WithRSAEncryption
         2f:fa:1b:5a:74:71:a9:b6:81:1b:e7:bb:c3:2c:d1:5a:7a:17:
         c2:fb:00:08:f5:fb:c8:78:b4:c3:00:23:9f:8d:12:0d:67:56:
         c5:02:dd:1d:e9:17:d0:78:eb:a0:ca:5a:38:72:3f:38:82:1d:
         e2:69:0c:90:28:de:45:2b:aa:1f:f2:19:19:5d:a7:e4:f5:4b:
         34:e9:48:07:d4:7a:46:e4:74:0e:26:4b:1e:a7:cd:2d:11:27:
         81:c9:db:ec:21:74:c2:dd:64:da:bf:24:63:a8:20:a2:82:72:
         c3:55:ae:e1:a2:cd:49:77:07:42:ce:53:78:08:74:2d:0c:f3:
         fd:b4:52:b5:41:9b:34:97:a9:67:d1:b0:57:fc:7b:47:47:b0:
         bd:08:b7:53:0f:c0:35:31:be:74:9e:cf:7a:f9:52:91:85:50:
         32:87:03:eb:30:39:b3:e7:11:dd:cc:be:0f:7b:b4:08:58:69:
         b8:98:85:45:c5:5d:75:9e:30:a2:bb:7a:f0:8e:f7:6a:c7:dc:
         eb:da:db:06:5b:e5:88:e9:86:e4:ac:d6:f2:46:0e:88:20:b7:
         cf:74:48:35:0b:cb:ae:97:87:bf:fd:0c:a9:ec:3d:a2:a6:72:
         d0:bf:d2:f9:a4:a3:ca:8f:f1:92:ae:39:b4:ad:78:b8:ed:9b:
         09:20:a0:82
-----BEGIN CERTIFICATE REQUEST-----
MIICYDCCAUgCAQAwGzEZMBcGA1UEAwwQY2FtdW5kYS1wb3N0Z3JlczCCASIwDQYJ
KoZIhvcNAQEBBQADggEPADCCAQoCggEBANJpHtphht2YdVUTTM+TgOTxhrWrvU2Y
+vfJ7D7zkZyr/b33XQ3m6Jcn56krBRgDRDxmL2wh+KV/ZHCA34wS7C060a3TW0zD
MK8F5LEnPpZ+nu7qkNHCixgW5qGoRRpUeL/fLmP2NA7ru2aICPCzgscERU6j8ulr
wQhTzyCWLcZITiCJaoAcI+zD8WeWOR0n+T9MCgTT7rrl0FHf6uFIb7pIrNX0isQR
ieFwM8YL805mutmY/NF89uMVTOMA48qdSJa0mro1SQeWa45DMeAsNWS/hzsWSXRB
VkL/lj/ZzkpxEsr9mOwDo64bD02RKX3z3ghG3ukhyv+O81AOnIZUUlUCAwEAAaAA
MA0GCSqGSIb3DQEBCwUAA4IBAQAv+htadHGptoEb57vDLNFaehfC+wAI9fvIeLTD
ACOfjRINZ1bFAt0d6RfQeOugylo4cj84gh3iaQyQKN5FK6of8hkZXafk9Us06UgH
1HpG5HQOJksep80tESeBydvsIXTC3WTavyRjqCCignLDVa7hos1JdwdCzlN4CHQt
DPP9tFK1QZs0l6ln0bBX/HtHR7C9CLdTD8A1Mb50ns96+VKRhVAyhwPrMDmz5xHd
zL4Pe7QIWGm4mIVFxV11njCiu3rwjvdqx9zr2tsGW+WI6YbkrNbyRg6IILfPdEg1
C8uul4e//Qyp7D2ipnLQv9L5pKPKj/GSrjm0rXi47ZsJIKCC
-----END CERTIFICATE REQUEST-----
